target datalayout = "e-m:e-p270:32:32-p271:32:32-p272:64:64-i64:64-i128:128-f80:128-n8:16:32:64-S128"
target triple = "x86_64-pc-linux-gnu"

%struct.Vmem = type { ptr, i64, i64 }
%union.SourceSpan = type { i64 }
%struct.Ast_ = type { %union.SourceSpan, i32, i8, %union.anon.62 }
%union.anon.62 = type { %struct.AstDocDirective_ }
%struct.AstDocDirective_ = type { i8, %union.anon.65 }
%union.anon.65 = type { %struct.anon.66 }
%struct.anon.66 = type { ptr, %union.SourceSpan, i8 }
%struct.AstAssertStmt = type { i8, i32, i32, ptr }
%struct.Expr_ = type { ptr, %union.SourceSpan, i16, %union.anon.29 }
%union.anon.29 = type { %struct.ExprAnySwitch }
%struct.ExprAnySwitch = type { i8, %union.anon.31 }
%union.anon.31 = type { %struct.anon.32 }
%struct.anon.32 = type { ptr, %union.SourceSpan, ptr }
%struct.SemaContext_ = type { ptr, ptr, ptr, %struct.CallEnv, ptr, %union.SourceSpan, i32, i32, ptr, i32, ptr, i32, i32, ptr, ptr, i32, %struct.anon.85, ptr, ptr, ptr, %struct.DynamicScope_, ptr }
%struct.CallEnv = type { i16, ptr, %union.anon.84 }
%union.anon.84 = type { ptr }
%struct.anon.85 = type { i32, ptr, ptr, ptr, ptr, ptr, ptr, ptr, ptr, ptr, i8, ptr }
%struct.DynamicScope_ = type { i32, i8, i32, i32, i32, i32, i32, ptr, i32 }
%struct.ExprConst = type { i16, %union.anon.38 }
%union.anon.38 = type { %struct.Int }
%struct.Int = type { %struct.Int128_, i32 }
%struct.Int128_ = type { i64, i64 }
%struct.anon.39 = type { ptr, i32 }

@.str = private unnamed_addr constant [40 x i8] c"Expected a string as the error message.\00", align 1
@.str.1 = private unnamed_addr constant [5 x i8] c"%.*s\00", align 1
@.str.2 = private unnamed_addr constant [28 x i8] c"Compile time assert failed.\00", align 1
@.str.3 = private unnamed_addr constant [26 x i8] c"$assert was defined here.\00", align 1
@.str.4 = private unnamed_addr constant [24 x i8] c"$error was defined here\00", align 1
@expr_arena = external global %struct.Vmem, align 8

; Function Attrs: nounwind uwtable
define internal ptr @exprptr(i32 noundef %0) #0 {
  %2 = alloca i32, align 4
  store i32 %0, ptr %2, align 4
  %3 = load ptr, ptr @expr_arena, align 8
  %4 = load i32, ptr %2, align 4
  %5 = zext i32 %4 to i64
  %6 = getelementptr inbounds %struct.Expr_, ptr %3, i64 %5
  ret ptr %6
}

; Function Attrs: nounwind uwtable
define internal ptr @exprptrzero(i32 noundef %0) #0 {
  %2 = alloca i32, align 4
  store i32 %0, ptr %2, align 4
  %3 = load i32, ptr %2, align 4
  %4 = icmp ne i32 %3, 0
  br i1 %4, label %5, label %10

5:                                                ; preds = %1
  %6 = load ptr, ptr @expr_arena, align 8
  %7 = load i32, ptr %2, align 4
  %8 = zext i32 %7 to i64
  %9 = getelementptr inbounds %struct.Expr_, ptr %6, i64 %8
  br label %11

10:                                               ; preds = %1
  br label %11

11:                                               ; preds = %10, %5
  %12 = phi ptr [ %9, %5 ], [ null, %10 ]
  ret ptr %12
}

; Function Attrs: nounwind uwtable
define dso_local zeroext i1 @sema_analyse_ct_assert_stmt(ptr noundef %0, ptr noundef %1) #0 {
  %3 = alloca i1, align 1
  %4 = alloca ptr, align 8
  %5 = alloca ptr, align 8
  %6 = alloca ptr, align 8
  %7 = alloca i32, align 4
  %8 = alloca ptr, align 8
  %9 = alloca ptr, align 8
  %10 = alloca i32, align 4
  %11 = alloca %union.SourceSpan, align 8
  store ptr %0, ptr %4, align 8
  store ptr %1, ptr %5, align 8
  %12 = load ptr, ptr %5, align 8
  %13 = getelementptr inbounds %struct.Ast_, ptr %12, i32 0, i32 3
  %14 = getelementptr inbounds %struct.AstAssertStmt, ptr %13, i32 0, i32 2
  %15 = load i32, ptr %14, align 8
  %16 = call ptr @exprptrzero(i32 noundef %15)
  store ptr %16, ptr %6, align 8
  %17 = load ptr, ptr %5, align 8
  %18 = getelementptr inbounds %struct.Ast_, ptr %17, i32 0, i32 3
  %19 = getelementptr inbounds %struct.AstAssertStmt, ptr %18, i32 0, i32 1
  %20 = load i32, ptr %19, align 4
  store i32 %20, ptr %7, align 4
  store ptr null, ptr %8, align 8
  %21 = load i32, ptr %7, align 4
  %22 = icmp ne i32 %21, 0
  br i1 %22, label %23, label %26

23:                                               ; preds = %2
  %24 = load i32, ptr %7, align 4
  %25 = call ptr @exprptr(i32 noundef %24)
  br label %27

26:                                               ; preds = %2
  br label %27

27:                                               ; preds = %26, %23
  %28 = phi ptr [ %25, %23 ], [ null, %26 ]
  store ptr %28, ptr %9, align 8
  %29 = load ptr, ptr %9, align 8
  %30 = icmp ne ptr %29, null
  br i1 %30, label %31, label %56

31:                                               ; preds = %27
  %32 = load ptr, ptr %4, align 8
  %33 = load ptr, ptr %9, align 8
  %34 = call zeroext i1 @sema_analyse_expr(ptr noundef %32, ptr noundef %33)
  br i1 %34, label %36, label %35

35:                                               ; preds = %31
  store i1 false, ptr %3, align 1
  br label %138

36:                                               ; preds = %31
  %37 = load ptr, ptr %9, align 8
  %38 = getelementptr inbounds %struct.Expr_, ptr %37, i32 0, i32 2
  %39 = load i16, ptr %38, align 8
  %40 = and i16 %39, 255
  %41 = zext i16 %40 to i32
  %42 = icmp ne i32 %41, 14
  br i1 %42, label %50, label %43

43:                                               ; preds = %36
  %44 = load ptr, ptr %9, align 8
  %45 = getelementptr inbounds %struct.Expr_, ptr %44, i32 0, i32 3
  %46 = load i16, ptr %45, align 8
  %47 = and i16 %46, 255
  %48 = zext i16 %47 to i32
  %49 = icmp ne i32 %48, 6
  br i1 %49, label %50, label %55

50:                                               ; preds = %43, %36
  %51 = load ptr, ptr %9, align 8
  %52 = getelementptr inbounds %struct.Expr_, ptr %51, i32 0, i32 1
  %53 = getelementptr inbounds %union.SourceSpan, ptr %52, i32 0, i32 0
  %54 = load i64, ptr %53, align 8
  call void (i64, ptr, ...) @sema_error_at(i64 %54, ptr noundef @.str)
  br label %55

55:                                               ; preds = %50, %43
  br label %56

56:                                               ; preds = %55, %27
  %57 = load ptr, ptr %6, align 8
  %58 = icmp ne ptr %57, null
  br i1 %58, label %59, label %63

59:                                               ; preds = %56
  %60 = load ptr, ptr %4, align 8
  %61 = load ptr, ptr %6, align 8
  %62 = call i32 @sema_check_comp_time_bool(ptr noundef %60, ptr noundef %61)
  br label %64

63:                                               ; preds = %56
  br label %64

64:                                               ; preds = %63, %59
  %65 = phi i32 [ %62, %59 ], [ 0, %63 ]
  store i32 %65, ptr %10, align 4
  %66 = load i32, ptr %10, align 4
  %67 = icmp eq i32 %66, -1
  br i1 %67, label %68, label %69

68:                                               ; preds = %64
  store i1 false, ptr %3, align 1
  br label %138

69:                                               ; preds = %64
  %70 = load ptr, ptr %6, align 8
  %71 = icmp ne ptr %70, null
  br i1 %71, label %72, label %75

72:                                               ; preds = %69
  %73 = load ptr, ptr %6, align 8
  %74 = getelementptr inbounds %struct.Expr_, ptr %73, i32 0, i32 1
  call void @llvm.memcpy.p0.p0.i64(ptr align 8 %11, ptr align 8 %74, i64 8, i1 false)
  br label %78

75:                                               ; preds = %69
  %76 = load ptr, ptr %5, align 8
  %77 = getelementptr inbounds %struct.Ast_, ptr %76, i32 0, i32 0
  call void @llvm.memcpy.p0.p0.i64(ptr align 8 %11, ptr align 8 %77, i64 8, i1 false)
  br label %78

78:                                               ; preds = %75, %72
  %79 = load i32, ptr %10, align 4
  %80 = icmp ne i32 %79, 0
  br i1 %80, label %135, label %81

81:                                               ; preds = %78
  %82 = load ptr, ptr %4, align 8
  %83 = getelementptr inbounds %struct.SemaContext_, ptr %82, i32 0, i32 4
  %84 = load ptr, ptr %83, align 8
  %85 = icmp ne ptr %84, null
  br i1 %85, label %86, label %115

86:                                               ; preds = %81
  %87 = load ptr, ptr %9, align 8
  %88 = icmp ne ptr %87, null
  br i1 %88, label %89, label %104

89:                                               ; preds = %86
  %90 = load ptr, ptr %4, align 8
  %91 = getelementptr inbounds %struct.SemaContext_, ptr %90, i32 0, i32 5
  %92 = load ptr, ptr %9, align 8
  %93 = getelementptr inbounds %struct.Expr_, ptr %92, i32 0, i32 3
  %94 = getelementptr inbounds %struct.ExprConst, ptr %93, i32 0, i32 1
  %95 = getelementptr inbounds %struct.anon.39, ptr %94, i32 0, i32 1
  %96 = load i32, ptr %95, align 8
  %97 = load ptr, ptr %9, align 8
  %98 = getelementptr inbounds %struct.Expr_, ptr %97, i32 0, i32 3
  %99 = getelementptr inbounds %struct.ExprConst, ptr %98, i32 0, i32 1
  %100 = getelementptr inbounds %struct.anon.39, ptr %99, i32 0, i32 0
  %101 = load ptr, ptr %100, align 8
  %102 = getelementptr inbounds %union.SourceSpan, ptr %91, i32 0, i32 0
  %103 = load i64, ptr %102, align 8
  call void (i64, ptr, ...) @sema_error_at(i64 %103, ptr noundef @.str.1, i32 noundef %96, ptr noundef %101)
  br label %109

104:                                              ; preds = %86
  %105 = load ptr, ptr %4, align 8
  %106 = getelementptr inbounds %struct.SemaContext_, ptr %105, i32 0, i32 5
  %107 = getelementptr inbounds %union.SourceSpan, ptr %106, i32 0, i32 0
  %108 = load i64, ptr %107, align 8
  call void (i64, ptr, ...) @sema_error_at(i64 %108, ptr noundef @.str.2)
  br label %109

109:                                              ; preds = %104, %89
  %110 = load ptr, ptr %6, align 8
  %111 = icmp ne ptr %110, null
  %112 = select i1 %111, ptr @.str.3, ptr @.str.4
  %113 = getelementptr inbounds %union.SourceSpan, ptr %11, i32 0, i32 0
  %114 = load i64, ptr %113, align 8
  call void (i64, ptr, ...) @sema_error_prev_at(i64 %114, ptr noundef %112)
  store i1 false, ptr %3, align 1
  br label %138

115:                                              ; preds = %81
  %116 = load ptr, ptr %9, align 8
  %117 = icmp ne ptr %116, null
  br i1 %117, label %118, label %131

118:                                              ; preds = %115
  %119 = load ptr, ptr %9, align 8
  %120 = getelementptr inbounds %struct.Expr_, ptr %119, i32 0, i32 3
  %121 = getelementptr inbounds %struct.ExprConst, ptr %120, i32 0, i32 1
  %122 = getelementptr inbounds %struct.anon.39, ptr %121, i32 0, i32 1
  %123 = load i32, ptr %122, align 8
  %124 = load ptr, ptr %9, align 8
  %125 = getelementptr inbounds %struct.Expr_, ptr %124, i32 0, i32 3
  %126 = getelementptr inbounds %struct.ExprConst, ptr %125, i32 0, i32 1
  %127 = getelementptr inbounds %struct.anon.39, ptr %126, i32 0, i32 0
  %128 = load ptr, ptr %127, align 8
  %129 = getelementptr inbounds %union.SourceSpan, ptr %11, i32 0, i32 0
  %130 = load i64, ptr %129, align 8
  call void (i64, ptr, ...) @sema_error_at(i64 %130, ptr noundef @.str.1, i32 noundef %123, ptr noundef %128)
  br label %134

131:                                              ; preds = %115
  %132 = getelementptr inbounds %union.SourceSpan, ptr %11, i32 0, i32 0
  %133 = load i64, ptr %132, align 8
  call void (i64, ptr, ...) @sema_error_at(i64 %133, ptr noundef @.str.2)
  br label %134

134:                                              ; preds = %131, %118
  store i1 false, ptr %3, align 1
  br label %138

135:                                              ; preds = %78
  %136 = load ptr, ptr %5, align 8
  %137 = getelementptr inbounds %struct.Ast_, ptr %136, i32 0, i32 2
  store i8 24, ptr %137, align 4
  store i1 true, ptr %3, align 1
  br label %138

138:                                              ; preds = %135, %134, %109, %68, %35
  %139 = load i1, ptr %3, align 1
  ret i1 %139
}