; Function Attrs: nounwind uwtable
define dso_local noundef zeroext i1 @sema_analyse_ct_assert_stmt(ptr noundef %0, ptr nocapture noundef %1) local_unnamed_addr #0 {
  %3 = getelementptr inbounds i8, ptr %1, i64 24
  %4 = load i32, ptr %3, align 8
  %.not.i = icmp eq i32 %4, 0
  %5 = load ptr, ptr @expr_arena, align 8
  %6 = zext i32 %4 to i64
  %7 = getelementptr inbounds %struct.Expr_, ptr %5, i64 %6
  %8 = select i1 %.not.i, ptr null, ptr %7
  %9 = getelementptr inbounds i8, ptr %1, i64 20
  %10 = load i32, ptr %9, align 4
  %.not = icmp eq i32 %10, 0
  br i1 %.not, label %.thread, label %11

11:                                               ; preds = %2
  %12 = zext i32 %10 to i64
  %13 = getelementptr inbounds %struct.Expr_, ptr %5, i64 %12
  %14 = tail call zeroext i1 @sema_analyse_expr(ptr noundef %0, ptr noundef nonnull %13) #9
  br i1 %14, label %15, label %55

15:                                               ; preds = %11
  %16 = getelementptr inbounds i8, ptr %13, i64 16
  %17 = load i16, ptr %16, align 8
  %18 = and i16 %17, 255
  %.not38 = icmp eq i16 %18, 14
  br i1 %.not38, label %19, label %23

19:                                               ; preds = %15
  %20 = getelementptr inbounds i8, ptr %13, i64 24
  %21 = load i16, ptr %20, align 8
  %22 = and i16 %21, 255
  %.not39 = icmp eq i16 %22, 6
  br i1 %.not39, label %.thread, label %23

23:                                               ; preds = %19, %15
  %24 = getelementptr inbounds i8, ptr %13, i64 8
  %25 = load i64, ptr %24, align 8
  tail call void (i64, ptr, ...) @sema_error_at(i64 %25, ptr noundef nonnull @.str) #9
  br label %.thread

.thread:                                          ; preds = %2, %19, %23
  %26 = phi ptr [ %13, %19 ], [ %13, %23 ], [ null, %2 ]
  %.not40 = icmp eq ptr %8, null
  br i1 %.not40, label %.thread46, label %27

27:                                               ; preds = %.thread
  %28 = tail call i32 @sema_check_comp_time_bool(ptr noundef %0, ptr noundef nonnull %8) #9
  %29 = icmp eq i32 %28, -1
  br i1 %29, label %55, label %30

30:                                               ; preds = %27
  %31 = getelementptr inbounds i8, ptr %8, i64 8
  %.not41 = icmp eq i32 %28, 0
  br i1 %.not41, label %.thread46, label %53

.thread46:                                        ; preds = %.thread, %30
  %.sroa.0.050.in = phi ptr [ %31, %30 ], [ %1, %.thread ]
  %.sroa.0.050 = load i64, ptr %.sroa.0.050.in, align 8
  %32 = getelementptr inbounds i8, ptr %0, i64 48
  %33 = load ptr, ptr %32, align 8
  %.not42 = icmp eq ptr %33, null
  br i1 %.not42, label %46, label %34

34:                                               ; preds = %.thread46
  %35 = getelementptr inbounds i8, ptr %0, i64 56
  br i1 %.not, label %42, label %36

36:                                               ; preds = %34
  %37 = getelementptr inbounds i8, ptr %26, i64 32
  %38 = getelementptr inbounds i8, ptr %26, i64 40
  %39 = load i32, ptr %38, align 8
  %40 = load ptr, ptr %37, align 8
  %41 = load i64, ptr %35, align 8
  tail call void (i64, ptr, ...) @sema_error_at(i64 %41, ptr noundef nonnull @.str.1, i32 noundef %39, ptr noundef %40) #9
  br label %44

42:                                               ; preds = %34
  %43 = load i64, ptr %35, align 8
  tail call void (i64, ptr, ...) @sema_error_at(i64 %43, ptr noundef nonnull @.str.2) #9
  br label %44

44:                                               ; preds = %42, %36
  %45 = select i1 %.not40, ptr @.str.4, ptr @.str.3
  tail call void (i64, ptr, ...) @sema_error_prev_at(i64 %.sroa.0.050, ptr noundef nonnull %45) #9
  br label %55

46:                                               ; preds = %.thread46
  br i1 %.not, label %52, label %47

47:                                               ; preds = %46
  %48 = getelementptr inbounds i8, ptr %26, i64 32
  %49 = getelementptr inbounds i8, ptr %26, i64 40
  %50 = load i32, ptr %49, align 8
  %51 = load ptr, ptr %48, align 8
  tail call void (i64, ptr, ...) @sema_error_at(i64 %.sroa.0.050, ptr noundef nonnull @.str.1, i32 noundef %50, ptr noundef %51) #9
  br label %55

52:                                               ; preds = %46
  tail call void (i64, ptr, ...) @sema_error_at(i64 %.sroa.0.050, ptr noundef nonnull @.str.2) #9
  br label %55

53:                                               ; preds = %30
  %54 = getelementptr inbounds i8, ptr %1, i64 12
  store i8 24, ptr %54, align 4
  br label %55

55:                                               ; preds = %47, %52, %27, %11, %53, %44
  %.0 = phi i1 [ true, %53 ], [ false, %44 ], [ false, %11 ], [ false, %27 ], [ false, %52 ], [ false, %47 ]
  ret i1 %.0
}